; Function Attrs: nofree norecurse nosync nounwind memory(read, argmem: readwrite, inaccessiblemem: none) uwtable
define void @empty_neighbors_vec(ptr noundef readonly captures(none) %0, i32 noundef %1, ptr noundef writeonly captures(none) %2) local_unnamed_addr #1 {
  %4 = sext i32 %1 to i64
  %5 = getelementptr inbounds %struct.vtx_data, ptr %0, i64 %4
  %6 = load i64, ptr %5, align 8, !tbaa !3
  %7 = icmp ugt i64 %6, 1
  br i1 %7, label %.lr.ph, label %._crit_edge

.lr.ph:                                           ; preds = %3
  %8 = getelementptr inbounds nuw i8, ptr %5, i64 8
  %9 = load ptr, ptr %8, align 8, !tbaa !11
  br label %10

._crit_edge:                                      ; preds = %10, %3
  ret void

10:                                               ; preds = %.lr.ph, %10
  %.07 = phi i64 [ 1, %.lr.ph ], [ %15, %10 ]
  %11 = getelementptr inbounds nuw i32, ptr %9, i64 %.07
  %12 = load i32, ptr %11, align 4, !tbaa !12
  %13 = sext i32 %12 to i64
  %14 = getelementptr inbounds i32, ptr %2, i64 %13
  store i32 0, ptr %14, align 4, !tbaa !12
  %15 = add nuw i64 %.07, 1
  %exitcond.not = icmp eq i64 %15, %6
  br i1 %exitcond.not, label %._crit_edge, label %10, !llvm.loop !17
}